; Function Attrs: nounwind sspstrong uwtable
define internal void @riscv_cpu_disas_set_info(ptr noundef %s, ptr noundef writeonly captures(none) initializes((184, 192)) %info) #3 {
entry:
  %call.i = tail call ptr @object_dynamic_cast_assert(ptr noundef %s, ptr noundef nonnull @.str.250, ptr noundef nonnull @.str.282, i32 noundef 46, ptr noundef nonnull @__func__.RISCV_CPU) #14
  %cfg = getelementptr inbounds nuw i8, ptr %call.i, i64 15312
  %target_info = getelementptr inbounds nuw i8, ptr %info, i64 184
  store ptr %cfg, ptr %target_info, align 8
  %xl = getelementptr inbounds nuw i8, ptr %call.i, i64 15200
  %0 = load i32, ptr %xl, align 16
  %switch.tableidx = add i32 %0, -1
  %1 = icmp ult i32 %switch.tableidx, 3
  br i1 %1, label %switch.lookup, label %do.body

do.body:                                          ; preds = %entry
  tail call void @g_assertion_message_expr(ptr noundef null, ptr noundef nonnull @.str.218, i32 noundef 942, ptr noundef nonnull @__func__.riscv_cpu_disas_set_info, ptr noundef null) #15
  unreachable

switch.lookup:                                    ; preds = %entry
  %2 = zext nneg i32 %switch.tableidx to i64
  %switch.gep = getelementptr inbounds nuw [3 x ptr], ptr @switch.table.riscv_cpu_disas_set_info, i64 0, i64 %2
  %switch.load = load ptr, ptr %switch.gep, align 8
  %print_insn5 = getelementptr inbounds nuw i8, ptr %info, i64 104
  store ptr %switch.load, ptr %print_insn5, align 8
  ret void
}